target datalayout = "e-m:e-p270:32:32-p271:32:32-p272:64:64-i64:64-i128:128-f80:128-n8:16:32:64-S128"
target triple = "x86_64-pc-linux-gnu"

%struct.pollfd = type { i32, i16, i16 }
%struct.URLContext = type { ptr, ptr, ptr, ptr, i32, i32, i32, i32, %struct.AVIOInterruptCB, i64, ptr, ptr, i32 }
%struct.AVIOInterruptCB = type { ptr, ptr }

@.str.2 = private unnamed_addr constant [27 x i8] c"ff_socket_nonblock failed\0A\00", align 1

; Function Attrs: nounwind uwtable
define i32 @ff_accept(i32 noundef %0, i32 noundef %1, ptr noundef %2) #0 {
  %4 = alloca i32, align 4
  %5 = alloca i32, align 4
  %6 = alloca i32, align 4
  %7 = alloca ptr, align 8
  %8 = alloca i32, align 4
  %9 = alloca %struct.pollfd, align 4
  %10 = alloca i32, align 4
  store i32 %0, ptr %5, align 4, !tbaa !4
  store i32 %1, ptr %6, align 4, !tbaa !4
  store ptr %2, ptr %7, align 8, !tbaa !27
  call void @llvm.lifetime.start.p0(i64 4, ptr %8) #10
  call void @llvm.lifetime.start.p0(i64 8, ptr %9) #10
  %11 = getelementptr inbounds nuw %struct.pollfd, ptr %9, i32 0, i32 0
  %12 = load i32, ptr %5, align 4, !tbaa !4
  store i32 %12, ptr %11, align 4, !tbaa !8
  %13 = getelementptr inbounds nuw %struct.pollfd, ptr %9, i32 0, i32 1
  store i16 1, ptr %13, align 4, !tbaa !11
  %14 = getelementptr inbounds nuw %struct.pollfd, ptr %9, i32 0, i32 2
  store i16 0, ptr %14, align 2, !tbaa !12
  %15 = load i32, ptr %6, align 4, !tbaa !4
  %16 = load ptr, ptr %7, align 8, !tbaa !27
  %17 = getelementptr inbounds nuw %struct.URLContext, ptr %16, i32 0, i32 8
  %18 = call i32 @ff_poll_interrupt(ptr noundef %9, i64 noundef 1, i32 noundef %15, ptr noundef %17)
  store i32 %18, ptr %8, align 4, !tbaa !4
  %19 = load i32, ptr %8, align 4, !tbaa !4
  %20 = icmp slt i32 %19, 0
  br i1 %20, label %21, label %23

21:                                               ; preds = %3
  %22 = load i32, ptr %8, align 4, !tbaa !4
  store i32 %22, ptr %4, align 4
  store i32 1, ptr %10, align 4
  br label %40

23:                                               ; preds = %3
  %24 = load i32, ptr %5, align 4, !tbaa !4
  %25 = call i32 @accept(i32 noundef %24, ptr noundef null, ptr noundef null)
  store i32 %25, ptr %8, align 4, !tbaa !4
  %26 = load i32, ptr %8, align 4, !tbaa !4
  %27 = icmp slt i32 %26, 0
  br i1 %27, label %28, label %32

28:                                               ; preds = %23
  %29 = call ptr @__errno_location() #11
  %30 = load i32, ptr %29, align 4, !tbaa !4
  %31 = sub nsw i32 0, %30
  store i32 %31, ptr %4, align 4
  store i32 1, ptr %10, align 4
  br label %40

32:                                               ; preds = %23
  %33 = load i32, ptr %8, align 4, !tbaa !4
  %34 = call i32 @ff_socket_nonblock(i32 noundef %33, i32 noundef 1)
  %35 = icmp slt i32 %34, 0
  br i1 %35, label %36, label %38

36:                                               ; preds = %32
  %37 = load ptr, ptr %7, align 8, !tbaa !27
  call void (ptr, i32, ptr, ...) @av_log(ptr noundef %37, i32 noundef 48, ptr noundef @.str.2)
  br label %38

38:                                               ; preds = %36, %32
  %39 = load i32, ptr %8, align 4, !tbaa !4
  store i32 %39, ptr %4, align 4
  store i32 1, ptr %10, align 4
  br label %40

40:                                               ; preds = %38, %28, %21
  call void @llvm.lifetime.end.p0(i64 8, ptr %9) #10
  call void @llvm.lifetime.end.p0(i64 4, ptr %8) #10
  %41 = load i32, ptr %4, align 4
  ret i32 %41
}