; Function Attrs: nounwind uwtable
define range(i32 -2147483647, -2147483648) i32 @ff_accept(i32 noundef %0, i32 noundef %1, ptr noundef %2) local_unnamed_addr #1 {
  %4 = alloca %struct.pollfd, align 4
  call void @llvm.lifetime.start.p0(i64 8, ptr nonnull %4) #12
  store i32 %0, ptr %4, align 4, !tbaa !4
  %5 = getelementptr inbounds nuw i8, ptr %4, i64 4
  store i16 1, ptr %5, align 4, !tbaa !10
  %6 = getelementptr inbounds nuw i8, ptr %4, i64 6
  store i16 0, ptr %6, align 2, !tbaa !11
  %7 = getelementptr inbounds nuw i8, ptr %2, i64 48
  %8 = call fastcc i32 @ff_poll_interrupt(ptr noundef %4, i64 noundef 1, i32 noundef %1, ptr noundef nonnull %7)
  %9 = icmp slt i32 %8, 0
  br i1 %9, label %21, label %10

10:                                               ; preds = %3
  %11 = call i32 @accept(i32 noundef %0, ptr noundef null, ptr noundef null) #12
  %12 = icmp slt i32 %11, 0
  br i1 %12, label %13, label %17

13:                                               ; preds = %10
  %14 = tail call ptr @__errno_location() #13
  %15 = load i32, ptr %14, align 4, !tbaa !12
  %16 = sub nsw i32 0, %15
  br label %21

17:                                               ; preds = %10
  %18 = call i32 @ff_socket_nonblock(i32 noundef %11, i32 noundef 1) #12
  %19 = icmp slt i32 %18, 0
  br i1 %19, label %20, label %21

20:                                               ; preds = %17
  call void (ptr, i32, ptr, ...) @av_log(ptr noundef nonnull %2, i32 noundef 48, ptr noundef nonnull @.str.2) #12
  br label %21

21:                                               ; preds = %17, %20, %3, %13
  %.0 = phi i32 [ %16, %13 ], [ %8, %3 ], [ %11, %20 ], [ %11, %17 ]
  call void @llvm.lifetime.end.p0(i64 8, ptr nonnull %4) #12
  ret i32 %.0
}